target datalayout = "e-m:e-p270:32:32-p271:32:32-p272:64:64-i64:64-i128:128-f80:128-n8:16:32:64-S128"
target triple = "x86_64-pc-linux-gnu"

%"struct.Luau::CodeGen::X64::OperandX64" = type { i8, %"struct.Luau::CodeGen::X64::RegisterX64", %"struct.Luau::CodeGen::X64::RegisterX64", i8, i32 }
%"struct.Luau::CodeGen::X64::RegisterX64" = type { i8 }

@_ZN4Luau7CodeGen3X64L5noregE = internal constant %"struct.Luau::CodeGen::X64::RegisterX64" { i8 -128 }, align 1

; Function Attrs: mustprogress nounwind uwtable
define linkonce_odr dso_local void @_ZN4Luau7CodeGen3X6410OperandX64C2ENS1_11RegisterX64E(ptr noundef nonnull align 4 dereferenceable(8) %0, i8 %1) unnamed_addr #4 comdat align 2 {
  %3 = alloca %"struct.Luau::CodeGen::X64::RegisterX64", align 1
  %4 = alloca ptr, align 8
  %5 = getelementptr inbounds nuw %"struct.Luau::CodeGen::X64::RegisterX64", ptr %3, i32 0, i32 0
  store i8 %1, ptr %5, align 1
  store ptr %0, ptr %4, align 8, !tbaa !24
  %6 = load ptr, ptr %4, align 8
  %7 = getelementptr inbounds nuw %"struct.Luau::CodeGen::X64::OperandX64", ptr %6, i32 0, i32 0
  store i8 0, ptr %7, align 4, !tbaa !13
  %8 = getelementptr inbounds nuw %"struct.Luau::CodeGen::X64::OperandX64", ptr %6, i32 0, i32 1
  call void @llvm.memcpy.p0.p0.i64(ptr align 1 %8, ptr align 1 @_ZN4Luau7CodeGen3X64L5noregE, i64 1, i1 false), !tbaa.struct !23
  %9 = getelementptr inbounds nuw %"struct.Luau::CodeGen::X64::OperandX64", ptr %6, i32 0, i32 2
  call void @llvm.memcpy.p0.p0.i64(ptr align 2 %9, ptr align 1 %3, i64 1, i1 false), !tbaa.struct !23
  %10 = getelementptr inbounds nuw %"struct.Luau::CodeGen::X64::OperandX64", ptr %6, i32 0, i32 3
  %11 = load i8, ptr %10, align 1
  %12 = and i8 %11, -16
  %13 = or i8 %12, 0
  store i8 %13, ptr %10, align 1
  %14 = getelementptr inbounds nuw %"struct.Luau::CodeGen::X64::OperandX64", ptr %6, i32 0, i32 3
  %15 = load i8, ptr %14, align 1
  %16 = and i8 %15, 15
  %17 = or i8 %16, 16
  store i8 %17, ptr %14, align 1
  %18 = getelementptr inbounds nuw %"struct.Luau::CodeGen::X64::OperandX64", ptr %6, i32 0, i32 4
  store i32 0, ptr %18, align 4, !tbaa !26
  ret void
}

; Function Attrs: mustprogress uwtable
define dso_local void @_ZN4Luau7CodeGen3X6426convertNumberToIndexOrJumpERNS1_18AssemblyBuilderX64ENS1_11RegisterX64ES4_S4_RNS0_5LabelE(ptr noundef nonnull align 8 dereferenceable(252) %0, i8 %1, i8 %2, i8 %3, ptr noundef nonnull align 4 dereferenceable(8) %4) #0 {
  %6 = alloca %"struct.Luau::CodeGen::X64::RegisterX64", align 1
  %7 = alloca %"struct.Luau::CodeGen::X64::RegisterX64", align 1
  %8 = alloca %"struct.Luau::CodeGen::X64::RegisterX64", align 1
  %9 = alloca ptr, align 8
  %10 = alloca ptr, align 8
  %11 = alloca %"struct.Luau::CodeGen::X64::OperandX64", align 4
  %12 = alloca %"struct.Luau::CodeGen::X64::RegisterX64", align 1
  %13 = alloca %"struct.Luau::CodeGen::X64::OperandX64", align 4
  %14 = alloca %"struct.Luau::CodeGen::X64::RegisterX64", align 1
  %15 = alloca %"struct.Luau::CodeGen::X64::OperandX64", align 4
  %16 = alloca %"struct.Luau::CodeGen::X64::RegisterX64", align 1
  %17 = alloca %"struct.Luau::CodeGen::X64::OperandX64", align 4
  %18 = alloca %"struct.Luau::CodeGen::X64::RegisterX64", align 1
  %19 = alloca %"struct.Luau::CodeGen::X64::OperandX64", align 4
  %20 = alloca %"struct.Luau::CodeGen::X64::RegisterX64", align 1
  %21 = alloca %"struct.Luau::CodeGen::X64::OperandX64", align 4
  %22 = alloca %"struct.Luau::CodeGen::X64::RegisterX64", align 1
  %23 = alloca %"struct.Luau::CodeGen::X64::OperandX64", align 4
  %24 = alloca %"struct.Luau::CodeGen::X64::RegisterX64", align 1
  %25 = getelementptr inbounds nuw %"struct.Luau::CodeGen::X64::RegisterX64", ptr %6, i32 0, i32 0
  store i8 %1, ptr %25, align 1
  %26 = getelementptr inbounds nuw %"struct.Luau::CodeGen::X64::RegisterX64", ptr %7, i32 0, i32 0
  store i8 %2, ptr %26, align 1
  %27 = getelementptr inbounds nuw %"struct.Luau::CodeGen::X64::RegisterX64", ptr %8, i32 0, i32 0
  store i8 %3, ptr %27, align 1
  store ptr %0, ptr %9, align 8, !tbaa !4
  store ptr %4, ptr %10, align 8, !tbaa !11
  %28 = load ptr, ptr %9, align 8, !tbaa !4
  call void @llvm.memcpy.p0.p0.i64(ptr align 1 %12, ptr align 1 %8, i64 1, i1 false), !tbaa.struct !23
  %29 = getelementptr inbounds nuw %"struct.Luau::CodeGen::X64::RegisterX64", ptr %12, i32 0, i32 0
  %30 = load i8, ptr %29, align 1
  call void @_ZN4Luau7CodeGen3X6410OperandX64C2ENS1_11RegisterX64E(ptr noundef nonnull align 4 dereferenceable(8) %11, i8 %30)
  call void @llvm.memcpy.p0.p0.i64(ptr align 1 %14, ptr align 1 %7, i64 1, i1 false), !tbaa.struct !23
  %31 = getelementptr inbounds nuw %"struct.Luau::CodeGen::X64::RegisterX64", ptr %14, i32 0, i32 0
  %32 = load i8, ptr %31, align 1
  call void @_ZN4Luau7CodeGen3X6410OperandX64C2ENS1_11RegisterX64E(ptr noundef nonnull align 4 dereferenceable(8) %13, i8 %32)
  %33 = load i64, ptr %11, align 4
  %34 = load i64, ptr %13, align 4
  call void @_ZN4Luau7CodeGen3X6418AssemblyBuilderX6410vcvttsd2siENS1_10OperandX64ES3_(ptr noundef nonnull align 8 dereferenceable(252) %28, i64 %33, i64 %34)
  %35 = load ptr, ptr %9, align 8, !tbaa !4
  call void @llvm.memcpy.p0.p0.i64(ptr align 1 %16, ptr align 1 %6, i64 1, i1 false), !tbaa.struct !23
  %36 = getelementptr inbounds nuw %"struct.Luau::CodeGen::X64::RegisterX64", ptr %16, i32 0, i32 0
  %37 = load i8, ptr %36, align 1
  call void @_ZN4Luau7CodeGen3X6410OperandX64C2ENS1_11RegisterX64E(ptr noundef nonnull align 4 dereferenceable(8) %15, i8 %37)
  call void @llvm.memcpy.p0.p0.i64(ptr align 1 %18, ptr align 1 %7, i64 1, i1 false), !tbaa.struct !23
  %38 = getelementptr inbounds nuw %"struct.Luau::CodeGen::X64::RegisterX64", ptr %18, i32 0, i32 0
  %39 = load i8, ptr %38, align 1
  call void @_ZN4Luau7CodeGen3X6410OperandX64C2ENS1_11RegisterX64E(ptr noundef nonnull align 4 dereferenceable(8) %17, i8 %39)
  call void @llvm.memcpy.p0.p0.i64(ptr align 1 %20, ptr align 1 %8, i64 1, i1 false), !tbaa.struct !23
  %40 = getelementptr inbounds nuw %"struct.Luau::CodeGen::X64::RegisterX64", ptr %20, i32 0, i32 0
  %41 = load i8, ptr %40, align 1
  call void @_ZN4Luau7CodeGen3X6410OperandX64C2ENS1_11RegisterX64E(ptr noundef nonnull align 4 dereferenceable(8) %19, i8 %41)
  %42 = load i64, ptr %15, align 4
  %43 = load i64, ptr %17, align 4
  %44 = load i64, ptr %19, align 4
  call void @_ZN4Luau7CodeGen3X6418AssemblyBuilderX649vcvtsi2sdENS1_10OperandX64ES3_S3_(ptr noundef nonnull align 8 dereferenceable(252) %35, i64 %42, i64 %43, i64 %44)
  %45 = load ptr, ptr %9, align 8, !tbaa !4
  call void @llvm.memcpy.p0.p0.i64(ptr align 1 %22, ptr align 1 %6, i64 1, i1 false), !tbaa.struct !23
  %46 = getelementptr inbounds nuw %"struct.Luau::CodeGen::X64::RegisterX64", ptr %22, i32 0, i32 0
  %47 = load i8, ptr %46, align 1
  call void @_ZN4Luau7CodeGen3X6410OperandX64C2ENS1_11RegisterX64E(ptr noundef nonnull align 4 dereferenceable(8) %21, i8 %47)
  call void @llvm.memcpy.p0.p0.i64(ptr align 1 %24, ptr align 1 %7, i64 1, i1 false), !tbaa.struct !23
  %48 = getelementptr inbounds nuw %"struct.Luau::CodeGen::X64::RegisterX64", ptr %24, i32 0, i32 0
  %49 = load i8, ptr %48, align 1
  call void @_ZN4Luau7CodeGen3X6410OperandX64C2ENS1_11RegisterX64E(ptr noundef nonnull align 4 dereferenceable(8) %23, i8 %49)
  %50 = load i64, ptr %21, align 4
  %51 = load i64, ptr %23, align 4
  call void @_ZN4Luau7CodeGen3X6418AssemblyBuilderX648vucomisdENS1_10OperandX64ES3_(ptr noundef nonnull align 8 dereferenceable(252) %45, i64 %50, i64 %51)
  %52 = load ptr, ptr %9, align 8, !tbaa !4
  %53 = load ptr, ptr %10, align 8, !tbaa !11
  call void @_ZN4Luau7CodeGen3X6418AssemblyBuilderX643jccENS0_12ConditionX64ERNS0_5LabelE(ptr noundef nonnull align 8 dereferenceable(252) %52, i8 noundef zeroext 23, ptr noundef nonnull align 4 dereferenceable(8) %53)
  ret void
}