; Function Attrs: mustprogress uwtable
define dso_local void @_ZN4Luau7CodeGen3X6426convertNumberToIndexOrJumpERNS1_18AssemblyBuilderX64ENS1_11RegisterX64ES4_S4_RNS0_5LabelE(ptr noundef nonnull align 8 dereferenceable(252) %0, i8 %1, i8 %2, i8 %3, ptr noundef nonnull align 4 dereferenceable(8) %4) local_unnamed_addr #0 {
  %.sroa.345.0.insert.ext = zext i8 %3 to i64
  %.sroa.345.0.insert.shift = shl nuw nsw i64 %.sroa.345.0.insert.ext, 16
  %.sroa.244.0.insert.insert = or disjoint i64 %.sroa.345.0.insert.shift, 268468224
  %.sroa.340.0.insert.ext = zext i8 %2 to i64
  %.sroa.340.0.insert.shift = shl nuw nsw i64 %.sroa.340.0.insert.ext, 16
  %.sroa.239.0.insert.insert = or disjoint i64 %.sroa.340.0.insert.shift, 268468224
  tail call void @_ZN4Luau7CodeGen3X6418AssemblyBuilderX6410vcvttsd2siENS1_10OperandX64ES3_(ptr noundef nonnull align 8 dereferenceable(252) %0, i64 %.sroa.244.0.insert.insert, i64 %.sroa.239.0.insert.insert)
  %.sroa.335.0.insert.ext = zext i8 %1 to i64
  %.sroa.335.0.insert.shift = shl nuw nsw i64 %.sroa.335.0.insert.ext, 16
  %.sroa.234.0.insert.insert = or disjoint i64 %.sroa.335.0.insert.shift, 268468224
  tail call void @_ZN4Luau7CodeGen3X6418AssemblyBuilderX649vcvtsi2sdENS1_10OperandX64ES3_S3_(ptr noundef nonnull align 8 dereferenceable(252) %0, i64 %.sroa.234.0.insert.insert, i64 %.sroa.239.0.insert.insert, i64 %.sroa.244.0.insert.insert)
  tail call void @_ZN4Luau7CodeGen3X6418AssemblyBuilderX648vucomisdENS1_10OperandX64ES3_(ptr noundef nonnull align 8 dereferenceable(252) %0, i64 %.sroa.234.0.insert.insert, i64 %.sroa.239.0.insert.insert)
  tail call void @_ZN4Luau7CodeGen3X6418AssemblyBuilderX643jccENS0_12ConditionX64ERNS0_5LabelE(ptr noundef nonnull align 8 dereferenceable(252) %0, i8 noundef zeroext 23, ptr noundef nonnull align 4 dereferenceable(8) %4)
  ret void
}